Certificate:
    Data:
        Version: 3 (0x2)
        Serial Number: 1 (0x1)
    Signature Algorithm: sha256WithRSAEncryption
        Issuer: C=CA, ST=Ontario, L=Ottawa, O=ConnectUs Technologies, OU=Testing Department, CN=Test CA Not For Deployment/emailAddress=test@example.com
        Validity
            Not Before: Mar  5 19:01:36 2020 GMT
            Not After : Nov 30 19:01:36 2022 GMT
        Subject: C=CA, ST=Ontario, L=Ottawa, O=ConnectUs Technologies, CN=Test_Server
        Subject Public Key Info:
            Public Key Algorithm: rsaEncryption
                Public-Key: (2048 bit)
                Modulus:
                    00:b9:40:0f:6e:f2:31:f0:e2:a0:9c:4c:1e:1b:97:
                    30:b1:31:1e:4c:3f:33:04:94:4f:b2:34:84:16:9d:
                    54:9a:24:8d:8c:f1:0a:8a:20:8a:fd:62:1b:81:25:
                    e6:e6:37:75:52:d8:76:39:49:2d:0f:d9:77:f4:78:
                    ab:98:28:ea:27:64:39:ed:49:8e:00:f6:f8:73:7c:
                    6e:cc:83:b0:9a:e8:48:62:0a:11:2b:5a:7a:3a:59:
                    1e:79:a8:f7:d9:60:68:22:99:3d:65:8b:3d:cf:50:
                    4a:a1:f0:73:fc:b0:ca:f1:fe:b8:a9:e9:25:74:57:
                    b9:0f:28:3d:b6:e4:66:37:3e:72:0d:43:1e:b1:44:
                    20:67:d2:7e:26:78:d2:22:a2:b5:81:b3:58:86:dd:
                    a0:36:b4:4f:8f:12:56:1c:2f:7c:70:10:52:d3:3f:
                    f8:7d:4e:84:fc:6d:b4:73:fe:dd:68:98:a3:1d:09:
                    66:0d:a1:53:bc:ca:f2:6a:98:41:86:6f:d1:64:9f:
                    28:78:b1:ce:55:d0:3d:0d:36:a6:84:21:80:fe:56:
                    54:d5:d0:e4:52:0a:ca:e4:95:f6:37:6c:e2:13:61:
                    ad:5f:a8:5c:c0:f1:95:6a:60:1c:05:a9:e3:9e:24:
                    73:f7:44:7e:68:a8:77:20:a5:e3:b9:0b:f8:51:b6:
                    50:31
                Exponent: 65537 (0x10001)
        X509v3 extensions:
            X509v3 Subject Key Identifier: 
                C0:AE:95:FA:5B:21:09:53:4F:0C:AC:75:BB:47:D5:6E:CF:50:EA:DD
            X509v3 Authority Key Identifier: 
                keyid:C7:F1:99:1F:AF:48:3A:C7:11:A0:15:52:77:F2:A0:F0:38:F6:10:4F

            X509v3 Basic Constraints: 
                CA:FALSE
            X509v3 Key Usage: 
                Digital Signature, Key Encipherment
            X509v3 Extended Key Usage: critical
                TLS Web Server Authentication
            X509v3 Subject Alternative Name: 
                DNS:example.com, DNS:www.example.com, DNS:mail.example.com, DNS:ftp.example.com, IP Address:127.0.0.1, IP Address:0:0:0:0:0:0:0:1
            Netscape Comment: 
                OpenSSL Generated Server Certificate
    Signature Algorithm: sha256WithRSAEncryption
         4c:54:7d:a4:52:10:87:48:26:cb:74:ab:72:47:4b:5c:3b:fc:
         d0:48:8d:e8:58:92:f6:1c:cc:a4:d7:ea:c2:fd:53:bc:7f:55:
         cb:53:87:d2:54:f8:28:4b:70:5e:44:54:75:1c:88:fc:93:b4:
         f5:de:10:18:26:93:29:19:50:c8:19:21:b5:b0:b0:c5:94:45:
         4e:03:4f:16:45:50:7e:31:ef:73:ee:bb:81:78:93:ef:c8:0c:
         68:1b:be:57:70:5b:73:1a:fe:1d:d9:14:2d:b6:d6:5d:6e:5d:
         b0:b0:a7:d7:19:cd:51:00:f4:a6:5d:4f:db:f4:b4:50:57:17:
         88:0d:84:ee:60:48:18:9f:e3:b6:03:67:ab:a6:f6:03:12:9e:
         60:5d:81:45:62:8e:28:ca:b7:62:a5:1f:6b:ec:58:fd:1a:97:
         f2:0f:17:84:f4:3f:60:f2:7b:df:f0:29:d6:66:04:ba:d4:de:
         22:e1:2c:76:9a:ce:3d:06:fa:a9:c6:2b:24:05:73:5c:6d:4c:
         0b:f3:4e:fd:73:72:27:58:f4:61:7c:8b:18:a8:61:75:ec:58:
         aa:4c:6a:ef:34:f2:8d:c7:16:3f:95:a1:58:82:55:08:4e:9c:
         75:48:81:80:ed:c6:8e:7a:c1:93:3a:ec:9e:ff:9a:8c:52:7a:
         fe:e2:58:91:e7:87:aa:4d:7e:9c:44:92:36:71:2d:a2:ea:39:
         b7:74:c8:4d:65:b0:8c:ff:a9:10:61:e7:5b:f4:17:4b:a6:04:
         3b:f9:4a:ec:3a:2a:ea:1c:60:fd:02:c1:40:13:9b:68:72:3f:
         df:df:b6:5a:a9:dd:7d:ba:3e:e0:42:f0:6f:be:80:c9:c0:fa:
         df:23:1d:02:01:5f:b3:24:b0:57:cb:b6:15:ab:72:ba:70:a8:
         bc:69:94:23:4a:a9:9f:2b:15:61:bf:93:52:ec:76:1a:9d:4e:
         38:74:30:2c:41:30:5c:be:b7:64:0b:83:ca:bc:75:6f:db:0e:
         f4:e2:a8:0a:06:e1:c9:20:72:98:3c:3d:93:f0:dc:6f:b0:f4:
         28:cc:87:47:71:11:59:d0:ce:05:af:d9:c5:6f:02:92:17:ac:
         cd:84:eb:9a:74:5d:94:e2:a9:c8:1d:66:3c:df:a7:ab:9f:56:
         17:03:f5:22:24:e3:bc:c3:e6:6c:88:3e:32:b0:d9:b1:96:05:
         89:2f:30:08:98:28:e6:11:7b:13:77:ea:76:15:e9:9e:bf:6a:
         44:8e:12:bd:2c:b6:df:f8:6b:ad:b8:bc:78:11:e4:ef:4b:8a:
         94:2d:e1:b2:ea:05:0c:5e:11:20:0f:02:7c:56:b5:52:28:fd:
         d6:25:bb:23:c8:1c:ab:29
-----BEGIN CERTIFICATE-----
MIIFpjCCA46gAwIBAgIBATANBgkqhkiG9w0BAQsFADCBtDELMAkGA1UEBhMCQ0Ex
EDAOBgNVBAgMB09udGFyaW8xDzANBgNVBAcMBk90dGF3YTEfMB0GA1UECgwWQ29u
bmVjdFVzIFRlY2hub2xvZ2llczEbMBkGA1UECwwSVGVzdGluZyBEZXBhcnRtZW50
MSMwIQYDVQQDDBpUZXN0IENBIE5vdCBGb3IgRGVwbG95bWVudDEfMB0GCSqGSIb3
DQEJARYQdGVzdEBleGFtcGxlLmNvbTAeFw0yMDAzMDUxOTAxMzZaFw0yMjExMzAx
OTAxMzZaMGcxCzAJBgNVBAYTAkNBMRAwDgYDVQQIDAdPbnRhcmlvMQ8wDQYDVQQH
DAZPdHRhd2ExHzAdBgNVBAoMFkNvbm5lY3RVcyBUZWNobm9sb2dpZXMxFDASBgNV
BAMMC1Rlc3RfU2VydmVyMIIBIjANBgkqhkiG9w0BAQEFAAOCAQ8AMIIBCgKCAQEA
uUAPbvIx8OKgnEweG5cwsTEeTD8zBJRPsjSEFp1UmiSNjPEKiiCK/WIbgSXm5jd1
Uth2OUktD9l39HirmCjqJ2Q57UmOAPb4c3xuzIOwmuhIYgoRK1p6Olkeeaj32WBo
Ipk9ZYs9z1BKofBz/LDK8f64qekldFe5Dyg9tuRmNz5yDUMesUQgZ9J+JnjSIqK1
gbNYht2gNrRPjxJWHC98cBBS0z/4fU6E/G20c/7daJijHQlmDaFTvMryaphBhm/R
ZJ8oeLHOVdA9DTamhCGA/lZU1dDkUgrK5JX2N2ziE2GtX6hcwPGVamAcBanjniRz
90R+aKh3IKXjuQv4UbZQMQIDAQABo4IBDTCCAQkwHQYDVR0OBBYEFMCulfpbIQlT
TwysdbtH1W7PUOrdMB8GA1UdIwQYMBaAFMfxmR+vSDrHEaAVUnfyoPA49hBPMAkG
A1UdEwQCMAAwCwYDVR0PBAQDAgWgMBYGA1UdJQEB/wQMMAoGCCsGAQUFBwMBMGIG
A1UdEQRbMFmCC2V4YW1wbGUuY29tgg93d3cuZXhhbXBsZS5jb22CEG1haWwuZXhh
bXBsZS5jb22CD2Z0cC5leGFtcGxlLmNvbYcEfwAAAYcQAAAAAAAAAAAAAAAAAAAA
ATAzBglghkgBhvhCAQ0EJhYkT3BlblNTTCBHZW5lcmF0ZWQgU2VydmVyIENlcnRp
ZmljYXRlMA0GCSqGSIb3DQEBCwUAA4ICAQBMVH2kUhCHSCbLdKtyR0tcO/zQSI3o
WJL2HMyk1+rC/VO8f1XLU4fSVPgoS3BeRFR1HIj8k7T13hAYJpMpGVDIGSG1sLDF
lEVOA08WRVB+Me9z7ruBeJPvyAxoG75XcFtzGv4d2RQtttZdbl2wsKfXGc1RAPSm
XU/b9LRQVxeIDYTuYEgYn+O2A2erpvYDEp5gXYFFYo4oyrdipR9r7Fj9GpfyDxeE
9D9g8nvf8CnWZgS61N4i4Sx2ms49BvqpxiskBXNcbUwL8079c3InWPRhfIsYqGF1
7FiqTGrvNPKNxxY/laFYglUITpx1SIGA7caOesGTOuye/5qMUnr+4liR54eqTX6c
RJI2cS2i6jm3dMhNZbCM/6kQYedb9BdLpgQ7+UrsOirqHGD9AsFAE5tocj/f37Za
qd19uj7gQvBvvoDJwPrfIx0CAV+zJLBXy7YVq3K6cKi8aZQjSqmfKxVhv5NS7HYa
nU44dDAsQTBcvrdkC4PKvHVv2w704qgKBuHJIHKYPD2T8NxvsPQozIdHcRFZ0M4F
r9nFbwKSF6zNhOuadF2U4qnIHWY836ern1YXA/UiJOO8w+ZsiD4ysNmxlgWJLzAI
mCjmEXsTd+p2Femev2pEjhK9LLbf+GutuLx4EeTvS4qULeGy6gUMXhEgDwJ8VrVS
KP3WJbsjyByrKQ==
-----END CERTIFICATE-----
